target datalayout = "e-m:e-p270:32:32-p271:32:32-p272:64:64-i64:64-i128:128-f80:128-n8:16:32:64-S128"
target triple = "x86_64-pc-linux-gnu"

%struct.jpeg_compress_struct = type { ptr, ptr, ptr, ptr, i32, i32, ptr, i32, i32, i32, i32, double, i32, i32, i32, ptr, [4 x ptr], [4 x ptr], [4 x ptr], [16 x i8], [16 x i8], [16 x i8], i32, ptr, i32, i32, i32, i32, i32, i32, i32, i32, i32, i8, i8, i8, i16, i16, i32, i32, i32, i32, i32, i32, i32, [4 x ptr], i32, i32, i32, [10 x i32], i32, i32, i32, i32, ptr, ptr, ptr, ptr, ptr, ptr, ptr, ptr, ptr, ptr, i32 }
%struct.jpeg_error_mgr = type { ptr, ptr, ptr, ptr, ptr, i32, %union.anon, i32, i64, ptr, i32, ptr, i32, i32 }
%union.anon = type { [8 x i32], [48 x i8] }
%struct.jpeg_memory_mgr = type { ptr, ptr, ptr, ptr, ptr, ptr, ptr, ptr, ptr, ptr, ptr, i64, i64 }
%struct.my_mem_destination_mgr = type { %struct.jpeg_destination_mgr, ptr, ptr, ptr, ptr, i64, i32 }
%struct.jpeg_destination_mgr = type { ptr, i64, ptr, ptr, ptr }

; Function Attrs: nounwind uwtable
define void @jpeg_mem_dest_tj(ptr noundef %0, ptr noundef %1, ptr noundef %2, i32 noundef %3) #0 {
  %5 = alloca ptr, align 8
  %6 = alloca ptr, align 8
  %7 = alloca ptr, align 8
  %8 = alloca i32, align 4
  %9 = alloca i32, align 4
  %10 = alloca ptr, align 8
  store ptr %0, ptr %5, align 8, !tbaa !3
  store ptr %1, ptr %6, align 8, !tbaa !8
  store ptr %2, ptr %7, align 8, !tbaa !10
  store i32 %3, ptr %8, align 4, !tbaa !12
  call void @llvm.lifetime.start.p0(i64 4, ptr %9) #5
  store i32 0, ptr %9, align 4, !tbaa !12
  call void @llvm.lifetime.start.p0(i64 8, ptr %10) #5
  %11 = load ptr, ptr %6, align 8, !tbaa !8
  %12 = icmp eq ptr %11, null
  br i1 %12, label %16, label %13

13:                                               ; preds = %4
  %14 = load ptr, ptr %7, align 8, !tbaa !10
  %15 = icmp eq ptr %14, null
  br i1 %15, label %16, label %27

16:                                               ; preds = %13, %4
  %17 = load ptr, ptr %5, align 8, !tbaa !3
  %18 = getelementptr inbounds nuw %struct.jpeg_compress_struct, ptr %17, i32 0, i32 0
  %19 = load ptr, ptr %18, align 8, !tbaa !14
  %20 = getelementptr inbounds nuw %struct.jpeg_error_mgr, ptr %19, i32 0, i32 5
  store i32 23, ptr %20, align 8, !tbaa !31
  %21 = load ptr, ptr %5, align 8, !tbaa !3
  %22 = getelementptr inbounds nuw %struct.jpeg_compress_struct, ptr %21, i32 0, i32 0
  %23 = load ptr, ptr %22, align 8, !tbaa !14
  %24 = getelementptr inbounds nuw %struct.jpeg_error_mgr, ptr %23, i32 0, i32 0
  %25 = load ptr, ptr %24, align 8, !tbaa !34
  %26 = load ptr, ptr %5, align 8, !tbaa !3
  call void %25(ptr noundef %26)
  br label %27

27:                                               ; preds = %16, %13
  %28 = load ptr, ptr %5, align 8, !tbaa !3
  %29 = getelementptr inbounds nuw %struct.jpeg_compress_struct, ptr %28, i32 0, i32 6
  %30 = load ptr, ptr %29, align 8, !tbaa !35
  %31 = icmp eq ptr %30, null
  br i1 %31, label %32, label %49

32:                                               ; preds = %27
  %33 = load ptr, ptr %5, align 8, !tbaa !3
  %34 = getelementptr inbounds nuw %struct.jpeg_compress_struct, ptr %33, i32 0, i32 1
  %35 = load ptr, ptr %34, align 8, !tbaa !36
  %36 = getelementptr inbounds nuw %struct.jpeg_memory_mgr, ptr %35, i32 0, i32 0
  %37 = load ptr, ptr %36, align 8, !tbaa !37
  %38 = load ptr, ptr %5, align 8, !tbaa !3
  %39 = call ptr %37(ptr noundef %38, i32 noundef 0, i64 noundef 88)
  %40 = load ptr, ptr %5, align 8, !tbaa !3
  %41 = getelementptr inbounds nuw %struct.jpeg_compress_struct, ptr %40, i32 0, i32 6
  store ptr %39, ptr %41, align 8, !tbaa !35
  %42 = load ptr, ptr %5, align 8, !tbaa !3
  %43 = getelementptr inbounds nuw %struct.jpeg_compress_struct, ptr %42, i32 0, i32 6
  %44 = load ptr, ptr %43, align 8, !tbaa !35
  store ptr %44, ptr %10, align 8, !tbaa !39
  %45 = load ptr, ptr %10, align 8, !tbaa !39
  %46 = getelementptr inbounds nuw %struct.my_mem_destination_mgr, ptr %45, i32 0, i32 3
  store ptr null, ptr %46, align 8, !tbaa !40
  %47 = load ptr, ptr %10, align 8, !tbaa !39
  %48 = getelementptr inbounds nuw %struct.my_mem_destination_mgr, ptr %47, i32 0, i32 4
  store ptr null, ptr %48, align 8, !tbaa !44
  br label %68

49:                                               ; preds = %27
  %50 = load ptr, ptr %5, align 8, !tbaa !3
  %51 = getelementptr inbounds nuw %struct.jpeg_compress_struct, ptr %50, i32 0, i32 6
  %52 = load ptr, ptr %51, align 8, !tbaa !35
  %53 = getelementptr inbounds nuw %struct.jpeg_destination_mgr, ptr %52, i32 0, i32 2
  %54 = load ptr, ptr %53, align 8, !tbaa !45
  %55 = icmp ne ptr %54, @init_mem_destination
  br i1 %55, label %56, label %67

56:                                               ; preds = %49
  %57 = load ptr, ptr %5, align 8, !tbaa !3
  %58 = getelementptr inbounds nuw %struct.jpeg_compress_struct, ptr %57, i32 0, i32 0
  %59 = load ptr, ptr %58, align 8, !tbaa !14
  %60 = getelementptr inbounds nuw %struct.jpeg_error_mgr, ptr %59, i32 0, i32 5
  store i32 23, ptr %60, align 8, !tbaa !31
  %61 = load ptr, ptr %5, align 8, !tbaa !3
  %62 = getelementptr inbounds nuw %struct.jpeg_compress_struct, ptr %61, i32 0, i32 0
  %63 = load ptr, ptr %62, align 8, !tbaa !14
  %64 = getelementptr inbounds nuw %struct.jpeg_error_mgr, ptr %63, i32 0, i32 0
  %65 = load ptr, ptr %64, align 8, !tbaa !34
  %66 = load ptr, ptr %5, align 8, !tbaa !3
  call void %65(ptr noundef %66)
  br label %67

67:                                               ; preds = %56, %49
  br label %68

68:                                               ; preds = %67, %32
  %69 = load ptr, ptr %5, align 8, !tbaa !3
  %70 = getelementptr inbounds nuw %struct.jpeg_compress_struct, ptr %69, i32 0, i32 6
  %71 = load ptr, ptr %70, align 8, !tbaa !35
  store ptr %71, ptr %10, align 8, !tbaa !39
  %72 = load ptr, ptr %10, align 8, !tbaa !39
  %73 = getelementptr inbounds nuw %struct.my_mem_destination_mgr, ptr %72, i32 0, i32 0
  %74 = getelementptr inbounds nuw %struct.jpeg_destination_mgr, ptr %73, i32 0, i32 2
  store ptr @init_mem_destination, ptr %74, align 8, !tbaa !46
  %75 = load ptr, ptr %10, align 8, !tbaa !39
  %76 = getelementptr inbounds nuw %struct.my_mem_destination_mgr, ptr %75, i32 0, i32 0
  %77 = getelementptr inbounds nuw %struct.jpeg_destination_mgr, ptr %76, i32 0, i32 3
  store ptr @empty_mem_output_buffer, ptr %77, align 8, !tbaa !47
  %78 = load ptr, ptr %10, align 8, !tbaa !39
  %79 = getelementptr inbounds nuw %struct.my_mem_destination_mgr, ptr %78, i32 0, i32 0
  %80 = getelementptr inbounds nuw %struct.jpeg_destination_mgr, ptr %79, i32 0, i32 4
  store ptr @term_mem_destination, ptr %80, align 8, !tbaa !48
  %81 = load ptr, ptr %10, align 8, !tbaa !39
  %82 = getelementptr inbounds nuw %struct.my_mem_destination_mgr, ptr %81, i32 0, i32 4
  %83 = load ptr, ptr %82, align 8, !tbaa !44
  %84 = load ptr, ptr %6, align 8, !tbaa !8
  %85 = load ptr, ptr %84, align 8, !tbaa !49
  %86 = icmp eq ptr %83, %85
  br i1 %86, label %87, label %95

87:                                               ; preds = %68
  %88 = load ptr, ptr %6, align 8, !tbaa !8
  %89 = load ptr, ptr %88, align 8, !tbaa !49
  %90 = icmp ne ptr %89, null
  br i1 %90, label %91, label %95

91:                                               ; preds = %87
  %92 = load i32, ptr %8, align 4, !tbaa !12
  %93 = icmp ne i32 %92, 0
  br i1 %93, label %94, label %95

94:                                               ; preds = %91
  store i32 1, ptr %9, align 4, !tbaa !12
  br label %95

95:                                               ; preds = %94, %91, %87, %68
  %96 = load ptr, ptr %6, align 8, !tbaa !8
  %97 = load ptr, ptr %10, align 8, !tbaa !39
  %98 = getelementptr inbounds nuw %struct.my_mem_destination_mgr, ptr %97, i32 0, i32 1
  store ptr %96, ptr %98, align 8, !tbaa !50
  %99 = load ptr, ptr %7, align 8, !tbaa !10
  %100 = load ptr, ptr %10, align 8, !tbaa !39
  %101 = getelementptr inbounds nuw %struct.my_mem_destination_mgr, ptr %100, i32 0, i32 2
  store ptr %99, ptr %101, align 8, !tbaa !51
  %102 = load i32, ptr %8, align 4, !tbaa !12
  %103 = load ptr, ptr %10, align 8, !tbaa !39
  %104 = getelementptr inbounds nuw %struct.my_mem_destination_mgr, ptr %103, i32 0, i32 6
  store i32 %102, ptr %104, align 8, !tbaa !52
  %105 = load ptr, ptr %6, align 8, !tbaa !8
  %106 = load ptr, ptr %105, align 8, !tbaa !49
  %107 = icmp eq ptr %106, null
  br i1 %107, label %112, label %108

108:                                              ; preds = %95
  %109 = load ptr, ptr %7, align 8, !tbaa !10
  %110 = load i64, ptr %109, align 8, !tbaa !53
  %111 = icmp eq i64 %110, 0
  br i1 %111, label %112, label %154

112:                                              ; preds = %108, %95
  %113 = load i32, ptr %8, align 4, !tbaa !12
  %114 = icmp ne i32 %113, 0
  br i1 %114, label %115, label %142

115:                                              ; preds = %112
  %116 = call noalias ptr @malloc(i64 noundef 4096) #6
  %117 = load ptr, ptr %6, align 8, !tbaa !8
  store ptr %116, ptr %117, align 8, !tbaa !49
  %118 = load ptr, ptr %10, align 8, !tbaa !39
  %119 = getelementptr inbounds nuw %struct.my_mem_destination_mgr, ptr %118, i32 0, i32 3
  store ptr %116, ptr %119, align 8, !tbaa !40
  %120 = load ptr, ptr %10, align 8, !tbaa !39
  %121 = getelementptr inbounds nuw %struct.my_mem_destination_mgr, ptr %120, i32 0, i32 3
  %122 = load ptr, ptr %121, align 8, !tbaa !40
  %123 = icmp eq ptr %122, null
  br i1 %123, label %124, label %140

124:                                              ; preds = %115
  %125 = load ptr, ptr %5, align 8, !tbaa !3
  %126 = getelementptr inbounds nuw %struct.jpeg_compress_struct, ptr %125, i32 0, i32 0
  %127 = load ptr, ptr %126, align 8, !tbaa !14
  %128 = getelementptr inbounds nuw %struct.jpeg_error_mgr, ptr %127, i32 0, i32 5
  store i32 54, ptr %128, align 8, !tbaa !31
  %129 = load ptr, ptr %5, align 8, !tbaa !3
  %130 = getelementptr inbounds nuw %struct.jpeg_compress_struct, ptr %129, i32 0, i32 0
  %131 = load ptr, ptr %130, align 8, !tbaa !14
  %132 = getelementptr inbounds nuw %struct.jpeg_error_mgr, ptr %131, i32 0, i32 6
  %133 = getelementptr inbounds [8 x i32], ptr %132, i64 0, i64 0
  store i32 10, ptr %133, align 4, !tbaa !54
  %134 = load ptr, ptr %5, align 8, !tbaa !3
  %135 = getelementptr inbounds nuw %struct.jpeg_compress_struct, ptr %134, i32 0, i32 0
  %136 = load ptr, ptr %135, align 8, !tbaa !14
  %137 = getelementptr inbounds nuw %struct.jpeg_error_mgr, ptr %136, i32 0, i32 0
  %138 = load ptr, ptr %137, align 8, !tbaa !34
  %139 = load ptr, ptr %5, align 8, !tbaa !3
  call void %138(ptr noundef %139)
  br label %140

140:                                              ; preds = %124, %115
  %141 = load ptr, ptr %7, align 8, !tbaa !10
  store i64 4096, ptr %141, align 8, !tbaa !53
  br label %153

142:                                              ; preds = %112
  %143 = load ptr, ptr %5, align 8, !tbaa !3
  %144 = getelementptr inbounds nuw %struct.jpeg_compress_struct, ptr %143, i32 0, i32 0
  %145 = load ptr, ptr %144, align 8, !tbaa !14
  %146 = getelementptr inbounds nuw %struct.jpeg_error_mgr, ptr %145, i32 0, i32 5
  store i32 23, ptr %146, align 8, !tbaa !31
  %147 = load ptr, ptr %5, align 8, !tbaa !3
  %148 = getelementptr inbounds nuw %struct.jpeg_compress_struct, ptr %147, i32 0, i32 0
  %149 = load ptr, ptr %148, align 8, !tbaa !14
  %150 = getelementptr inbounds nuw %struct.jpeg_error_mgr, ptr %149, i32 0, i32 0
  %151 = load ptr, ptr %150, align 8, !tbaa !34
  %152 = load ptr, ptr %5, align 8, !tbaa !3
  call void %151(ptr noundef %152)
  br label %153

153:                                              ; preds = %142, %140
  br label %154

154:                                              ; preds = %153, %108
  %155 = load ptr, ptr %6, align 8, !tbaa !8
  %156 = load ptr, ptr %155, align 8, !tbaa !49
  %157 = load ptr, ptr %10, align 8, !tbaa !39
  %158 = getelementptr inbounds nuw %struct.my_mem_destination_mgr, ptr %157, i32 0, i32 4
  store ptr %156, ptr %158, align 8, !tbaa !44
  %159 = load ptr, ptr %10, align 8, !tbaa !39
  %160 = getelementptr inbounds nuw %struct.my_mem_destination_mgr, ptr %159, i32 0, i32 0
  %161 = getelementptr inbounds nuw %struct.jpeg_destination_mgr, ptr %160, i32 0, i32 0
  store ptr %156, ptr %161, align 8, !tbaa !55
  %162 = load i32, ptr %9, align 4, !tbaa !12
  %163 = icmp ne i32 %162, 0
  br i1 %163, label %169, label %164

164:                                              ; preds = %154
  %165 = load ptr, ptr %7, align 8, !tbaa !10
  %166 = load i64, ptr %165, align 8, !tbaa !53
  %167 = load ptr, ptr %10, align 8, !tbaa !39
  %168 = getelementptr inbounds nuw %struct.my_mem_destination_mgr, ptr %167, i32 0, i32 5
  store i64 %166, ptr %168, align 8, !tbaa !56
  br label %169

169:                                              ; preds = %164, %154
  %170 = load ptr, ptr %10, align 8, !tbaa !39
  %171 = getelementptr inbounds nuw %struct.my_mem_destination_mgr, ptr %170, i32 0, i32 5
  %172 = load i64, ptr %171, align 8, !tbaa !56
  %173 = load ptr, ptr %10, align 8, !tbaa !39
  %174 = getelementptr inbounds nuw %struct.my_mem_destination_mgr, ptr %173, i32 0, i32 0
  %175 = getelementptr inbounds nuw %struct.jpeg_destination_mgr, ptr %174, i32 0, i32 1
  store i64 %172, ptr %175, align 8, !tbaa !57
  call void @llvm.lifetime.end.p0(i64 8, ptr %10) #5
  call void @llvm.lifetime.end.p0(i64 4, ptr %9) #5
  ret void
}