; Function Attrs: nounwind uwtable
define void @jpeg_mem_dest_tj(ptr noundef %0, ptr noundef %1, ptr noundef %2, i32 noundef %3) local_unnamed_addr #0 {
  %5 = icmp eq ptr %1, null
  %6 = icmp eq ptr %2, null
  %or.cond = or i1 %5, %6
  br i1 %or.cond, label %7, label %11

7:                                                ; preds = %4
  %8 = load ptr, ptr %0, align 8, !tbaa !3
  %9 = getelementptr inbounds nuw i8, ptr %8, i64 40
  store i32 23, ptr %9, align 8, !tbaa !24
  %10 = load ptr, ptr %8, align 8, !tbaa !28
  tail call void %10(ptr noundef nonnull %0) #7
  br label %11

11:                                               ; preds = %4, %7
  %12 = getelementptr inbounds nuw i8, ptr %0, i64 40
  %13 = load ptr, ptr %12, align 8, !tbaa !29
  %14 = icmp eq ptr %13, null
  br i1 %14, label %15, label %21

15:                                               ; preds = %11
  %16 = getelementptr inbounds nuw i8, ptr %0, i64 8
  %17 = load ptr, ptr %16, align 8, !tbaa !30
  %18 = load ptr, ptr %17, align 8, !tbaa !31
  %19 = tail call ptr %18(ptr noundef nonnull %0, i32 noundef 0, i64 noundef 88) #7
  store ptr %19, ptr %12, align 8, !tbaa !29
  %20 = getelementptr inbounds nuw i8, ptr %19, i64 56
  tail call void @llvm.memset.p0.i64(ptr noundef nonnull align 8 dereferenceable(16) %20, i8 0, i64 16, i1 false)
  br label %28

21:                                               ; preds = %11
  %22 = getelementptr inbounds nuw i8, ptr %13, i64 16
  %23 = load ptr, ptr %22, align 8, !tbaa !33
  %.not = icmp eq ptr %23, @init_mem_destination
  br i1 %.not, label %28, label %24

24:                                               ; preds = %21
  %25 = load ptr, ptr %0, align 8, !tbaa !3
  %26 = getelementptr inbounds nuw i8, ptr %25, i64 40
  store i32 23, ptr %26, align 8, !tbaa !24
  %27 = load ptr, ptr %25, align 8, !tbaa !28
  tail call void %27(ptr noundef nonnull %0) #7
  %.pre = load ptr, ptr %12, align 8, !tbaa !29
  br label %28

28:                                               ; preds = %21, %24, %15
  %29 = phi ptr [ %13, %21 ], [ %.pre, %24 ], [ %19, %15 ]
  %30 = getelementptr inbounds nuw i8, ptr %29, i64 16
  store ptr @init_mem_destination, ptr %30, align 8, !tbaa !36
  %31 = getelementptr inbounds nuw i8, ptr %29, i64 24
  store ptr @empty_mem_output_buffer, ptr %31, align 8, !tbaa !39
  %32 = getelementptr inbounds nuw i8, ptr %29, i64 32
  store ptr @term_mem_destination, ptr %32, align 8, !tbaa !40
  %33 = getelementptr inbounds nuw i8, ptr %29, i64 64
  %34 = load ptr, ptr %33, align 8, !tbaa !41
  %35 = load ptr, ptr %1, align 8, !tbaa !42
  %36 = icmp eq ptr %34, %35
  br i1 %36, label %37, label %40

37:                                               ; preds = %28
  %38 = icmp eq ptr %34, null
  %39 = icmp eq i32 %3, 0
  %or.cond3.not = or i1 %39, %38
  br label %40

40:                                               ; preds = %37, %28
  %.not57 = phi i1 [ true, %28 ], [ %or.cond3.not, %37 ]
  %41 = getelementptr inbounds nuw i8, ptr %29, i64 40
  store ptr %1, ptr %41, align 8, !tbaa !43
  %42 = getelementptr inbounds nuw i8, ptr %29, i64 48
  store ptr %2, ptr %42, align 8, !tbaa !44
  %43 = getelementptr inbounds nuw i8, ptr %29, i64 80
  store i32 %3, ptr %43, align 8, !tbaa !45
  %44 = icmp eq ptr %35, null
  br i1 %44, label %48, label %45

45:                                               ; preds = %40
  %46 = load i64, ptr %2, align 8, !tbaa !46
  %47 = icmp eq i64 %46, 0
  br i1 %47, label %48, label %64

48:                                               ; preds = %45, %40
  %.not56 = icmp eq i32 %3, 0
  br i1 %.not56, label %60, label %49

49:                                               ; preds = %48
  %50 = tail call noalias dereferenceable_or_null(4096) ptr @malloc(i64 noundef 4096) #8
  store ptr %50, ptr %1, align 8, !tbaa !42
  %51 = getelementptr inbounds nuw i8, ptr %29, i64 56
  store ptr %50, ptr %51, align 8, !tbaa !47
  %52 = icmp eq ptr %50, null
  br i1 %52, label %53, label %59

53:                                               ; preds = %49
  %54 = load ptr, ptr %0, align 8, !tbaa !3
  %55 = getelementptr inbounds nuw i8, ptr %54, i64 40
  store i32 54, ptr %55, align 8, !tbaa !24
  %56 = getelementptr inbounds nuw i8, ptr %54, i64 44
  store i32 10, ptr %56, align 4, !tbaa !48
  %57 = load ptr, ptr %0, align 8, !tbaa !3
  %58 = load ptr, ptr %57, align 8, !tbaa !28
  tail call void %58(ptr noundef nonnull %0) #7
  br label %59

59:                                               ; preds = %53, %49
  store i64 4096, ptr %2, align 8, !tbaa !46
  br label %64

60:                                               ; preds = %48
  %61 = load ptr, ptr %0, align 8, !tbaa !3
  %62 = getelementptr inbounds nuw i8, ptr %61, i64 40
  store i32 23, ptr %62, align 8, !tbaa !24
  %63 = load ptr, ptr %61, align 8, !tbaa !28
  tail call void %63(ptr noundef nonnull %0) #7
  br label %64

64:                                               ; preds = %59, %60, %45
  %65 = load ptr, ptr %1, align 8, !tbaa !42
  store ptr %65, ptr %33, align 8, !tbaa !41
  store ptr %65, ptr %29, align 8, !tbaa !49
  br i1 %.not57, label %66, label %._crit_edge

._crit_edge:                                      ; preds = %64
  %.phi.trans.insert = getelementptr inbounds nuw i8, ptr %29, i64 72
  %.pre60 = load i64, ptr %.phi.trans.insert, align 8, !tbaa !50
  br label %69

66:                                               ; preds = %64
  %67 = load i64, ptr %2, align 8, !tbaa !46
  %68 = getelementptr inbounds nuw i8, ptr %29, i64 72
  store i64 %67, ptr %68, align 8, !tbaa !50
  br label %69

69:                                               ; preds = %._crit_edge, %66
  %70 = phi i64 [ %.pre60, %._crit_edge ], [ %67, %66 ]
  %71 = getelementptr inbounds nuw i8, ptr %29, i64 8
  store i64 %70, ptr %71, align 8, !tbaa !51
  ret void
}